target datalayout = "e-m:e-p270:32:32-p271:32:32-p272:64:64-i64:64-i128:128-f80:128-n8:16:32:64-S128"
target triple = "x86_64-pc-linux-gnu"

%struct.PredIterInfoData = type { ptr, ptr, ptr, ptr, ptr }
%struct.Expr = type { i32 }
%struct.Const = type { %struct.Expr, i32, i32, i32, i32, i64, i8, i8, i32 }
%struct.OpExpr = type { %struct.Expr, i32, i32, i32, i8, i32, i32, ptr, i32 }
%struct.ArrayConstIterState = type { %struct.OpExpr, %struct.Const, i32, i32, ptr, ptr }

; Function Attrs: nounwind uwtable
define internal void @arrayconst_cleanup_fn(ptr noundef %0) #0 {
  %2 = alloca ptr, align 8
  %3 = alloca ptr, align 8
  store ptr %0, ptr %2, align 8
  call void @llvm.lifetime.start.p0(i64 8, ptr %3) #7
  %4 = load ptr, ptr %2, align 8
  %5 = getelementptr inbounds nuw %struct.PredIterInfoData, ptr %4, i32 0, i32 0
  %6 = load ptr, ptr %5, align 8
  store ptr %6, ptr %3, align 8
  %7 = load ptr, ptr %3, align 8
  %8 = getelementptr inbounds nuw %struct.ArrayConstIterState, ptr %7, i32 0, i32 4
  %9 = load ptr, ptr %8, align 8
  call void @pfree(ptr noundef %9)
  %10 = load ptr, ptr %3, align 8
  %11 = getelementptr inbounds nuw %struct.ArrayConstIterState, ptr %10, i32 0, i32 5
  %12 = load ptr, ptr %11, align 8
  call void @pfree(ptr noundef %12)
  %13 = load ptr, ptr %3, align 8
  %14 = getelementptr inbounds nuw %struct.ArrayConstIterState, ptr %13, i32 0, i32 0
  %15 = getelementptr inbounds nuw %struct.OpExpr, ptr %14, i32 0, i32 7
  %16 = load ptr, ptr %15, align 8
  call void @list_free(ptr noundef %16)
  %17 = load ptr, ptr %3, align 8
  call void @pfree(ptr noundef %17)
  call void @llvm.lifetime.end.p0(i64 8, ptr %3) #7
  ret void
}