; Function Attrs: nounwind uwtable
define internal void @arrayconst_cleanup_fn(ptr noundef readonly captures(none) %0) #0 {
  %2 = load ptr, ptr %0, align 8
  %3 = getelementptr inbounds nuw i8, ptr %2, i64 96
  %4 = load ptr, ptr %3, align 8
  tail call void @pfree(ptr noundef %4) #7
  %5 = getelementptr inbounds nuw i8, ptr %2, i64 104
  %6 = load ptr, ptr %5, align 8
  tail call void @pfree(ptr noundef %6) #7
  %7 = getelementptr inbounds nuw i8, ptr %2, i64 32
  %8 = load ptr, ptr %7, align 8
  tail call void @list_free(ptr noundef %8) #7
  tail call void @pfree(ptr noundef %2) #7
  ret void
}